target datalayout = "e-m:e-p270:32:32-p271:32:32-p272:64:64-i64:64-i128:128-f80:128-n8:16:32:64-S128"
target triple = "x86_64-pc-linux-gnu"

%"struct.WasmEdge::Host::WASI::FdHolder" = type <{ i32, i8, [3 x i8] }>
%"struct.WasmEdge::Host::WASI::FdHolder.base" = type <{ i32, i8 }>
%"struct.std::__detail::_Hash_node_base" = type { ptr }
%"struct.std::__detail::_Prime_rehash_policy" = type { float, i64 }
%"class.std::vector.104" = type { %"struct.std::_Vector_base.105" }
%"struct.std::_Vector_base.105" = type { %"struct.std::_Vector_base<WasmEdge::Host::WASI::Poller::Timer, std::allocator<WasmEdge::Host::WASI::Poller::Timer>>::_Vector_impl" }
%"struct.std::_Vector_base<WasmEdge::Host::WASI::Poller::Timer, std::allocator<WasmEdge::Host::WASI::Poller::Timer>>::_Vector_impl" = type { %"struct.std::_Vector_base<WasmEdge::Host::WASI::Poller::Timer, std::allocator<WasmEdge::Host::WASI::Poller::Timer>>::_Vector_impl_data" }
%"struct.std::_Vector_base<WasmEdge::Host::WASI::Poller::Timer, std::allocator<WasmEdge::Host::WASI::Poller::Timer>>::_Vector_impl_data" = type { ptr, ptr, ptr }
%"class.WasmEdge::Host::WASI::Poller" = type { %"struct.WasmEdge::Host::WASI::FdHolder.base", %"class.std::reference_wrapper", %"struct.cxx20::span.109", %"class.std::vector.111", %"class.std::unordered_map.116", %"class.std::unordered_map.116", %"class.std::vector.104", %"class.std::vector.136" }
%"class.std::reference_wrapper" = type { ptr }
%"struct.cxx20::span.109" = type { %"class.cxx20::detail::span_storage.110" }
%"class.cxx20::detail::span_storage.110" = type { ptr, i64 }
%"class.std::vector.111" = type { %"struct.std::_Vector_base.112" }
%"struct.std::_Vector_base.112" = type { %"struct.std::_Vector_base<WasmEdge::Host::WASI::Poller::OptionalEvent, std::allocator<WasmEdge::Host::WASI::Poller::OptionalEvent>>::_Vector_impl" }
%"struct.std::_Vector_base<WasmEdge::Host::WASI::Poller::OptionalEvent, std::allocator<WasmEdge::Host::WASI::Poller::OptionalEvent>>::_Vector_impl" = type { %"struct.std::_Vector_base<WasmEdge::Host::WASI::Poller::OptionalEvent, std::allocator<WasmEdge::Host::WASI::Poller::OptionalEvent>>::_Vector_impl_data" }
%"struct.std::_Vector_base<WasmEdge::Host::WASI::Poller::OptionalEvent, std::allocator<WasmEdge::Host::WASI::Poller::OptionalEvent>>::_Vector_impl_data" = type { ptr, ptr, ptr }
%"class.std::unordered_map.116" = type { %"class.std::_Hashtable.117" }
%"class.std::_Hashtable.117" = type { ptr, i64, %"struct.std::__detail::_Hash_node_base", i64, %"struct.std::__detail::_Prime_rehash_policy", ptr }
%"class.std::vector.136" = type { %"struct.std::_Vector_base.137" }
%"struct.std::_Vector_base.137" = type { %"struct.std::_Vector_base<epoll_event, std::allocator<epoll_event>>::_Vector_impl" }
%"struct.std::_Vector_base<epoll_event, std::allocator<epoll_event>>::_Vector_impl" = type { %"struct.std::_Vector_base<epoll_event, std::allocator<epoll_event>>::_Vector_impl_data" }
%"struct.std::_Vector_base<epoll_event, std::allocator<epoll_event>>::_Vector_impl_data" = type { ptr, ptr, ptr }

; Function Attrs: mustprogress uwtable
define linkonce_odr hidden noundef i64 @_ZNSt10_HashtableIiSt4pairIKiN8WasmEdge4Host4WASI6Poller6FdDataEESaIS7_ENSt8__detail10_Select1stESt8equal_toIiESt4hashIiENS9_18_Mod_range_hashingENS9_20_Default_ranged_hashENS9_20_Prime_rehash_policyENS9_17_Hashtable_traitsILb0ELb0ELb1EEEE5eraseERS1_(ptr noundef nonnull align 8 dereferenceable(56) %0, ptr noundef nonnull align 4 dereferenceable(4) %1) #7 comdat align 2 {
  %3 = alloca ptr, align 8
  %4 = alloca ptr, align 8
  store ptr %0, ptr %3, align 8
  store ptr %1, ptr %4, align 8
  %5 = load ptr, ptr %3, align 8
  %6 = load ptr, ptr %4, align 8
  %7 = call noundef i64 @_ZNSt10_HashtableIiSt4pairIKiN8WasmEdge4Host4WASI6Poller6FdDataEESaIS7_ENSt8__detail10_Select1stESt8equal_toIiESt4hashIiENS9_18_Mod_range_hashingENS9_20_Default_ranged_hashENS9_20_Prime_rehash_policyENS9_17_Hashtable_traitsILb0ELb0ELb1EEEE8_M_eraseESt17integral_constantIbLb1EERS1_(ptr noundef nonnull align 8 dereferenceable(56) %5, ptr noundef nonnull align 4 dereferenceable(4) %6)
  ret i64 %7
}

; Function Attrs: mustprogress uwtable
define linkonce_odr hidden noundef i64 @_ZNSt13unordered_mapIiN8WasmEdge4Host4WASI6Poller6FdDataESt4hashIiESt8equal_toIiESaISt4pairIKiS4_EEE5eraseERSA_(ptr noundef nonnull align 8 dereferenceable(56) %0, ptr noundef nonnull align 4 dereferenceable(4) %1) #7 comdat align 2 {
  %3 = alloca ptr, align 8
  %4 = alloca ptr, align 8
  store ptr %0, ptr %3, align 8
  store ptr %1, ptr %4, align 8
  %5 = load ptr, ptr %3, align 8
  %6 = getelementptr inbounds %"class.std::unordered_map.116", ptr %5, i32 0, i32 0
  %7 = load ptr, ptr %4, align 8
  %8 = call noundef i64 @_ZNSt10_HashtableIiSt4pairIKiN8WasmEdge4Host4WASI6Poller6FdDataEESaIS7_ENSt8__detail10_Select1stESt8equal_toIiESt4hashIiENS9_18_Mod_range_hashingENS9_20_Default_ranged_hashENS9_20_Prime_rehash_policyENS9_17_Hashtable_traitsILb0ELb0ELb1EEEE5eraseERS1_(ptr noundef nonnull align 8 dereferenceable(56) %6, ptr noundef nonnull align 4 dereferenceable(4) %7)
  ret i64 %8
}

; Function Attrs: mustprogress nounwind uwtable
define void @_ZN8WasmEdge4Host4WASI6Poller5closeERKNS1_5INodeE(ptr noundef nonnull align 8 dereferenceable(216) %0, ptr noundef nonnull align 8 dereferenceable(200) %1) #0 align 2 personality ptr @__gxx_personality_v0 {
  %3 = alloca ptr, align 8
  %4 = alloca ptr, align 8
  store ptr %0, ptr %3, align 8
  store ptr %1, ptr %4, align 8
  %5 = load ptr, ptr %3, align 8
  %6 = getelementptr inbounds %"class.WasmEdge::Host::WASI::Poller", ptr %5, i32 0, i32 4
  %7 = load ptr, ptr %4, align 8
  %8 = getelementptr inbounds %"struct.WasmEdge::Host::WASI::FdHolder", ptr %7, i32 0, i32 0
  %9 = invoke noundef i64 @_ZNSt13unordered_mapIiN8WasmEdge4Host4WASI6Poller6FdDataESt4hashIiESt8equal_toIiESaISt4pairIKiS4_EEE5eraseERSA_(ptr noundef nonnull align 8 dereferenceable(56) %6, ptr noundef nonnull align 4 dereferenceable(4) %8)
          to label %10 unwind label %16

10:                                               ; preds = %2
  %11 = getelementptr inbounds %"class.WasmEdge::Host::WASI::Poller", ptr %5, i32 0, i32 5
  %12 = load ptr, ptr %4, align 8
  %13 = getelementptr inbounds %"struct.WasmEdge::Host::WASI::FdHolder", ptr %12, i32 0, i32 0
  %14 = invoke noundef i64 @_ZNSt13unordered_mapIiN8WasmEdge4Host4WASI6Poller6FdDataESt4hashIiESt8equal_toIiESaISt4pairIKiS4_EEE5eraseERSA_(ptr noundef nonnull align 8 dereferenceable(56) %11, ptr noundef nonnull align 4 dereferenceable(4) %13)
          to label %15 unwind label %16

15:                                               ; preds = %10
  ret void

16:                                               ; preds = %10, %2
  %17 = landingpad { ptr, i32 }
          catch ptr null
  %18 = extractvalue { ptr, i32 } %17, 0
  call void @__clang_call_terminate(ptr %18) #15
  unreachable
}