; Function Attrs: mustprogress nounwind uwtable
define void @_ZN8WasmEdge4Host4WASI6Poller5closeERKNS1_5INodeE(ptr noundef nonnull align 8 dereferenceable(216) %0, ptr noundef nonnull align 8 dereferenceable(200) %1) local_unnamed_addr #0 align 2 personality ptr @__gxx_personality_v0 {
  %3 = getelementptr inbounds nuw i8, ptr %0, i64 56
  %4 = invoke noundef i64 @_ZNSt10_HashtableIiSt4pairIKiN8WasmEdge4Host4WASI6Poller6FdDataEESaIS7_ENSt8__detail10_Select1stESt8equal_toIiESt4hashIiENS9_18_Mod_range_hashingENS9_20_Default_ranged_hashENS9_20_Prime_rehash_policyENS9_17_Hashtable_traitsILb0ELb0ELb1EEEE8_M_eraseESt17integral_constantIbLb1EERS1_(ptr noundef nonnull align 8 dereferenceable(56) %3, ptr noundef nonnull align 4 dereferenceable(4) %1)
          to label %_ZNSt13unordered_mapIiN8WasmEdge4Host4WASI6Poller6FdDataESt4hashIiESt8equal_toIiESaISt4pairIKiS4_EEE5eraseERSA_.exit unwind label %7

_ZNSt13unordered_mapIiN8WasmEdge4Host4WASI6Poller6FdDataESt4hashIiESt8equal_toIiESaISt4pairIKiS4_EEE5eraseERSA_.exit: ; preds = %2
  %5 = getelementptr inbounds nuw i8, ptr %0, i64 112
  %6 = invoke noundef i64 @_ZNSt10_HashtableIiSt4pairIKiN8WasmEdge4Host4WASI6Poller6FdDataEESaIS7_ENSt8__detail10_Select1stESt8equal_toIiESt4hashIiENS9_18_Mod_range_hashingENS9_20_Default_ranged_hashENS9_20_Prime_rehash_policyENS9_17_Hashtable_traitsILb0ELb0ELb1EEEE8_M_eraseESt17integral_constantIbLb1EERS1_(ptr noundef nonnull align 8 dereferenceable(56) %5, ptr noundef nonnull align 4 dereferenceable(4) %1)
          to label %_ZNSt13unordered_mapIiN8WasmEdge4Host4WASI6Poller6FdDataESt4hashIiESt8equal_toIiESaISt4pairIKiS4_EEE5eraseERSA_.exit3 unwind label %7

_ZNSt13unordered_mapIiN8WasmEdge4Host4WASI6Poller6FdDataESt4hashIiESt8equal_toIiESaISt4pairIKiS4_EEE5eraseERSA_.exit3: ; preds = %_ZNSt13unordered_mapIiN8WasmEdge4Host4WASI6Poller6FdDataESt4hashIiESt8equal_toIiESaISt4pairIKiS4_EEE5eraseERSA_.exit
  ret void

7:                                                ; preds = %_ZNSt13unordered_mapIiN8WasmEdge4Host4WASI6Poller6FdDataESt4hashIiESt8equal_toIiESaISt4pairIKiS4_EEE5eraseERSA_.exit, %2
  %8 = landingpad { ptr, i32 }
          catch ptr null
  %9 = extractvalue { ptr, i32 } %8, 0
  tail call void @__clang_call_terminate(ptr %9) #23
  unreachable
}